; Function Attrs: mustprogress uwtable
define hidden noundef zeroext i1 @_ZN4cvc58internal6theory11quantifiers19InstantiationEngine13shouldProcessENS0_12NodeTemplateILb1EEE(ptr noundef nonnull align 8 dereferenceable(240) %this, ptr nocapture noundef readonly %q) local_unnamed_addr #3 align 2 personality ptr @__gxx_personality_v0 {
entry:
  %agg.tmp = alloca %"class.cvc5::internal::NodeTemplate", align 8
  %agg.tmp4 = alloca %"class.cvc5::internal::NodeTemplate", align 8
  %d_qreg = getelementptr inbounds i8, ptr %this, i64 32
  %0 = load ptr, ptr %d_qreg, align 8
  %1 = load ptr, ptr %q, align 8
  store ptr %1, ptr %agg.tmp, align 8
  %bf.load.i.i = load i64, ptr %1, align 8
  %bf.lshr.i.i = lshr i64 %bf.load.i.i, 40
  %2 = trunc i64 %bf.lshr.i.i to i32
  %bf.cast.i.i = and i32 %2, 1048575
  %cmp.i.i = icmp ult i32 %bf.cast.i.i, 1048574
  br i1 %cmp.i.i, label %if.then.i.i, label %if.else.i.i

if.then.i.i:                                      ; preds = %entry
  %bf.value.i.i = add i64 %bf.load.i.i, 1099511627776
  %bf.shl.i.i = and i64 %bf.value.i.i, 1152920405095219200
  %bf.clear7.i.i = and i64 %bf.load.i.i, -1152920405095219201
  %bf.set.i.i = or disjoint i64 %bf.shl.i.i, %bf.clear7.i.i
  store i64 %bf.set.i.i, ptr %1, align 8
  br label %_ZN4cvc58internal12NodeTemplateILb1EEC2ERKS2_.exit

if.else.i.i:                                      ; preds = %entry
  %cmp12.i.i = icmp eq i32 %bf.cast.i.i, 1048574
  br i1 %cmp12.i.i, label %if.then13.i.i, label %_ZN4cvc58internal12NodeTemplateILb1EEC2ERKS2_.exit

if.then13.i.i:                                    ; preds = %if.else.i.i
  %bf.set23.i.i = or i64 %bf.load.i.i, 1152920405095219200
  store i64 %bf.set23.i.i, ptr %1, align 8
  tail call void @_ZN4cvc58internal4expr9NodeValue20markRefCountMaxedOutEv(ptr noundef nonnull align 8 dereferenceable(16) %1)
  br label %_ZN4cvc58internal12NodeTemplateILb1EEC2ERKS2_.exit

_ZN4cvc58internal12NodeTemplateILb1EEC2ERKS2_.exit: ; preds = %if.then.i.i, %if.else.i.i, %if.then13.i.i
  %call = invoke noundef zeroext i1 @_ZNK4cvc58internal6theory11quantifiers19QuantifiersRegistry12hasOwnershipENS0_12NodeTemplateILb1EEEPNS1_17QuantifiersModuleE(ptr noundef nonnull align 8 dereferenceable(488) %0, ptr noundef nonnull %agg.tmp, ptr noundef nonnull %this)
          to label %invoke.cont unwind label %lpad

invoke.cont:                                      ; preds = %_ZN4cvc58internal12NodeTemplateILb1EEC2ERKS2_.exit
  %3 = load ptr, ptr %agg.tmp, align 8
  %bf.load.i.i2 = load i64, ptr %3, align 8
  %4 = and i64 %bf.load.i.i2, 1152920405095219200
  %cmp.not.i.i = icmp eq i64 %4, 1152920405095219200
  br i1 %cmp.not.i.i, label %_ZN4cvc58internal12NodeTemplateILb1EED2Ev.exit, label %if.then.i.i3

if.then.i.i3:                                     ; preds = %invoke.cont
  %bf.value.i.i4 = add i64 %bf.load.i.i2, 1152920405095219200
  %bf.shl.i.i5 = and i64 %bf.value.i.i4, 1152920405095219200
  %bf.clear7.i.i6 = and i64 %bf.load.i.i2, -1152920405095219201
  %bf.set.i.i7 = or disjoint i64 %bf.shl.i.i5, %bf.clear7.i.i6
  store i64 %bf.set.i.i7, ptr %3, align 8
  %cmp12.i.i8 = icmp eq i64 %bf.shl.i.i5, 0
  br i1 %cmp12.i.i8, label %if.then13.i.i9, label %_ZN4cvc58internal12NodeTemplateILb1EED2Ev.exit

if.then13.i.i9:                                   ; preds = %if.then.i.i3
  invoke void @_ZN4cvc58internal4expr9NodeValue15markForDeletionEv(ptr noundef nonnull align 8 dereferenceable(16) %3)
          to label %_ZN4cvc58internal12NodeTemplateILb1EED2Ev.exit unwind label %terminate.lpad.i

terminate.lpad.i:                                 ; preds = %if.then13.i.i9
  %5 = landingpad { ptr, i32 }
          catch ptr null
  %6 = extractvalue { ptr, i32 } %5, 0
  call void @__clang_call_terminate(ptr %6) #19
  unreachable

_ZN4cvc58internal12NodeTemplateILb1EED2Ev.exit:   ; preds = %invoke.cont, %if.then.i.i3, %if.then13.i.i9
  br i1 %call, label %if.end, label %return

lpad:                                             ; preds = %_ZN4cvc58internal12NodeTemplateILb1EEC2ERKS2_.exit
  %7 = landingpad { ptr, i32 }
          cleanup
  br label %eh.resume

if.end:                                           ; preds = %_ZN4cvc58internal12NodeTemplateILb1EED2Ev.exit
  %8 = load ptr, ptr %d_qreg, align 8
  %call3 = call noundef nonnull align 8 dereferenceable(96) ptr @_ZN4cvc58internal6theory11quantifiers19QuantifiersRegistry18getQuantAttributesEv(ptr noundef nonnull align 8 dereferenceable(488) %8)
  %9 = load ptr, ptr %q, align 8
  store ptr %9, ptr %agg.tmp4, align 8
  %bf.load.i.i10 = load i64, ptr %9, align 8
  %bf.lshr.i.i11 = lshr i64 %bf.load.i.i10, 40
  %10 = trunc i64 %bf.lshr.i.i11 to i32
  %bf.cast.i.i12 = and i32 %10, 1048575
  %cmp.i.i13 = icmp ult i32 %bf.cast.i.i12, 1048574
  br i1 %cmp.i.i13, label %if.then.i.i18, label %if.else.i.i14

if.then.i.i18:                                    ; preds = %if.end
  %bf.value.i.i19 = add i64 %bf.load.i.i10, 1099511627776
  %bf.shl.i.i20 = and i64 %bf.value.i.i19, 1152920405095219200
  %bf.clear7.i.i21 = and i64 %bf.load.i.i10, -1152920405095219201
  %bf.set.i.i22 = or disjoint i64 %bf.shl.i.i20, %bf.clear7.i.i21
  store i64 %bf.set.i.i22, ptr %9, align 8
  br label %_ZN4cvc58internal12NodeTemplateILb1EEC2ERKS2_.exit23

if.else.i.i14:                                    ; preds = %if.end
  %cmp12.i.i15 = icmp eq i32 %bf.cast.i.i12, 1048574
  br i1 %cmp12.i.i15, label %if.then13.i.i16, label %_ZN4cvc58internal12NodeTemplateILb1EEC2ERKS2_.exit23

if.then13.i.i16:                                  ; preds = %if.else.i.i14
  %bf.set23.i.i17 = or i64 %bf.load.i.i10, 1152920405095219200
  store i64 %bf.set23.i.i17, ptr %9, align 8
  call void @_ZN4cvc58internal4expr9NodeValue20markRefCountMaxedOutEv(ptr noundef nonnull align 8 dereferenceable(16) %9)
  br label %_ZN4cvc58internal12NodeTemplateILb1EEC2ERKS2_.exit23

_ZN4cvc58internal12NodeTemplateILb1EEC2ERKS2_.exit23: ; preds = %if.then.i.i18, %if.else.i.i14, %if.then13.i.i16
  %call7 = invoke noundef zeroext i1 @_ZNK4cvc58internal6theory11quantifiers15QuantAttributes14isQuantBoundedENS0_12NodeTemplateILb1EEE(ptr noundef nonnull align 8 dereferenceable(96) %call3, ptr noundef nonnull %agg.tmp4)
          to label %invoke.cont6 unwind label %lpad5

invoke.cont6:                                     ; preds = %_ZN4cvc58internal12NodeTemplateILb1EEC2ERKS2_.exit23
  %11 = load ptr, ptr %agg.tmp4, align 8
  %bf.load.i.i24 = load i64, ptr %11, align 8
  %12 = and i64 %bf.load.i.i24, 1152920405095219200
  %cmp.not.i.i25 = icmp eq i64 %12, 1152920405095219200
  br i1 %cmp.not.i.i25, label %_ZN4cvc58internal12NodeTemplateILb1EED2Ev.exit34, label %if.then.i.i26

if.then.i.i26:                                    ; preds = %invoke.cont6
  %bf.value.i.i27 = add i64 %bf.load.i.i24, 1152920405095219200
  %bf.shl.i.i28 = and i64 %bf.value.i.i27, 1152920405095219200
  %bf.clear7.i.i29 = and i64 %bf.load.i.i24, -1152920405095219201
  %bf.set.i.i30 = or disjoint i64 %bf.shl.i.i28, %bf.clear7.i.i29
  store i64 %bf.set.i.i30, ptr %11, align 8
  %cmp12.i.i31 = icmp eq i64 %bf.shl.i.i28, 0
  br i1 %cmp12.i.i31, label %if.then13.i.i32, label %_ZN4cvc58internal12NodeTemplateILb1EED2Ev.exit34

if.then13.i.i32:                                  ; preds = %if.then.i.i26
  invoke void @_ZN4cvc58internal4expr9NodeValue15markForDeletionEv(ptr noundef nonnull align 8 dereferenceable(16) %11)
          to label %_ZN4cvc58internal12NodeTemplateILb1EED2Ev.exit34 unwind label %terminate.lpad.i33

terminate.lpad.i33:                               ; preds = %if.then13.i.i32
  %13 = landingpad { ptr, i32 }
          catch ptr null
  %14 = extractvalue { ptr, i32 } %13, 0
  call void @__clang_call_terminate(ptr %14) #19
  unreachable

_ZN4cvc58internal12NodeTemplateILb1EED2Ev.exit34: ; preds = %invoke.cont6, %if.then.i.i26, %if.then13.i.i32
  %not.call7 = xor i1 %call7, true
  br label %return

lpad5:                                            ; preds = %_ZN4cvc58internal12NodeTemplateILb1EEC2ERKS2_.exit23
  %15 = landingpad { ptr, i32 }
          cleanup
  br label %eh.resume

return:                                           ; preds = %_ZN4cvc58internal12NodeTemplateILb1EED2Ev.exit34, %_ZN4cvc58internal12NodeTemplateILb1EED2Ev.exit
  %retval.0 = phi i1 [ false, %_ZN4cvc58internal12NodeTemplateILb1EED2Ev.exit ], [ %not.call7, %_ZN4cvc58internal12NodeTemplateILb1EED2Ev.exit34 ]
  ret i1 %retval.0

eh.resume:                                        ; preds = %lpad5, %lpad
  %agg.tmp4.sink = phi ptr [ %agg.tmp4, %lpad5 ], [ %agg.tmp, %lpad ]
  %.pn = phi { ptr, i32 } [ %15, %lpad5 ], [ %7, %lpad ]
  call void @_ZN4cvc58internal12NodeTemplateILb1EED2Ev(ptr noundef nonnull align 8 dereferenceable(8) %agg.tmp4.sink) #16
  resume { ptr, i32 } %.pn
}